; Function Attrs: mustprogress nounwind uwtable
define hidden void @_ZN11Compilation30add_exception_handlers_for_pcoEiP9XHandlers(ptr nocapture noundef nonnull readonly align 8 dereferenceable(704) %0, i32 noundef %1, ptr noundef %2) local_unnamed_addr #1 align 2 {
  %4 = getelementptr inbounds i8, ptr %0, i64 136
  %5 = load ptr, ptr %4, align 8
  %6 = tail call align 8 ptr @llvm.threadlocal.address.p0(ptr align 8 @_ZN6Thread12_thr_currentE)
  %7 = load ptr, ptr %6, align 8
  %8 = getelementptr inbounds i8, ptr %7, i64 1808
  %9 = load ptr, ptr %8, align 8
  %10 = getelementptr inbounds i8, ptr %9, i64 128
  %11 = load ptr, ptr %10, align 8
  %12 = load ptr, ptr %11, align 8
  %13 = getelementptr inbounds i8, ptr %12, i64 40
  %14 = load ptr, ptr %13, align 8
  %15 = getelementptr inbounds i8, ptr %12, i64 32
  %16 = load ptr, ptr %15, align 8
  %17 = ptrtoint ptr %14 to i64
  %18 = ptrtoint ptr %16 to i64
  %19 = sub i64 %17, %18
  %.not.i.i.i = icmp ult i64 %19, 16
  br i1 %.not.i.i.i, label %22, label %20

20:                                               ; preds = %3
  %21 = getelementptr inbounds i8, ptr %16, i64 16
  store ptr %21, ptr %15, align 8
  br label %_ZN22CompilationResourceObjnwEm.exit

22:                                               ; preds = %3
  %23 = tail call noundef ptr @_ZN5Arena4growEmN17AllocFailStrategy13AllocFailEnumE(ptr noundef nonnull align 8 dereferenceable(48) %12, i64 noundef 16, i32 noundef 0) #7
  br label %_ZN22CompilationResourceObjnwEm.exit

_ZN22CompilationResourceObjnwEm.exit:             ; preds = %20, %22
  %.0.i.i.i = phi ptr [ %16, %20 ], [ %23, %22 ]
  %24 = icmp eq ptr %.0.i.i.i, null
  br i1 %24, label %27, label %25

25:                                               ; preds = %_ZN22CompilationResourceObjnwEm.exit
  store i32 %1, ptr %.0.i.i.i, align 8
  %26 = getelementptr inbounds i8, ptr %.0.i.i.i, i64 8
  store ptr %2, ptr %26, align 8
  br label %27

27:                                               ; preds = %25, %_ZN22CompilationResourceObjnwEm.exit
  %28 = load i32, ptr %5, align 8
  %29 = getelementptr inbounds i8, ptr %5, i64 4
  %30 = load i32, ptr %29, align 4
  %31 = icmp eq i32 %28, %30
  br i1 %31, label %32, label %_ZN26GrowableArrayWithAllocatorIP13ExceptionInfo13GrowableArrayIS1_EE4pushERKS1_.exit

32:                                               ; preds = %27
  %33 = add nsw i32 %28, 1
  %34 = icmp sgt i32 %28, -1
  %35 = xor i32 %28, -2147483648
  %36 = and i32 %35, %33
  %37 = icmp eq i32 %36, 0
  %38 = and i1 %34, %37
  %39 = tail call range(i32 0, 33) i32 @llvm.ctlz.i32(i32 %33, i1 true)
  %40 = sub nuw nsw i32 32, %39
  %41 = shl nuw i32 1, %40
  %.0.i.i.i.i.i = select i1 %38, i32 %33, i32 %41
  tail call void @_ZN26GrowableArrayWithAllocatorIP13ExceptionInfo13GrowableArrayIS1_EE9expand_toEi(ptr noundef nonnull align 8 dereferenceable(16) %5, i32 noundef %.0.i.i.i.i.i)
  %.pre.i.i = load i32, ptr %5, align 8
  br label %_ZN26GrowableArrayWithAllocatorIP13ExceptionInfo13GrowableArrayIS1_EE4pushERKS1_.exit

_ZN26GrowableArrayWithAllocatorIP13ExceptionInfo13GrowableArrayIS1_EE4pushERKS1_.exit: ; preds = %27, %32
  %42 = phi i32 [ %.pre.i.i, %32 ], [ %28, %27 ]
  %43 = add nsw i32 %42, 1
  store i32 %43, ptr %5, align 8
  %44 = getelementptr inbounds i8, ptr %5, i64 8
  %45 = load ptr, ptr %44, align 8
  %46 = sext i32 %42 to i64
  %47 = getelementptr inbounds ptr, ptr %45, i64 %46
  store ptr %.0.i.i.i, ptr %47, align 8
  ret void
}